(i__main__
Session
p0
(dp1
S'users'
p2
(lp3
S'SteveClement\t:B:78eeb4cc:b074e8ad431a841d2b083092ddd31a64\n'
p4
aS'Steve\t:B:7ac9dedb:cc40cc81d628cb53987f2583c5f5ed07\n'
p5
aS'Blimmi\t:B:dc44c9e3:d325423165cc8439dd6db1ac29a92d28\n'
p6
aS'Malou\t:B:8b2ed372:07b6e1c6f370cec4150ae6a0c1d0cc8b\n'
p7
asS'wfilename'
p8
S'UAp.txt'
p9
sS'file'
p10
S'.wikisafe.mkNMqTxfoG.ws'
p11
sS'linenumber'
p12
I161049
sS'found'
p13
(lp14
S'Blimmi'
p15
asS'name'
p16
S'mkNMqTxfoG'
p17
sb.